target datalayout = "e-m:e-p270:32:32-p271:32:32-p272:64:64-i64:64-i128:128-f80:128-n8:16:32:64-S128"
target triple = "x86_64-pc-linux-gnu"

@_ZN4llvmL15offsetsFromUTF8E = internal constant [6 x i32] [i32 0, i32 12416, i32 925824, i32 63447168, i32 -100130688, i32 -2113396608], align 16

; Function Attrs: mustprogress nounwind uwtable
define dso_local noundef i32 @_ZN4llvm18ConvertUTF8toUTF16EPPKhS1_PPtS3_NS_15ConversionFlagsE(ptr noundef %0, ptr noundef %1, ptr noundef %2, ptr noundef %3, i32 noundef %4) #0 {
  %6 = alloca ptr, align 8
  %7 = alloca ptr, align 8
  %8 = alloca ptr, align 8
  %9 = alloca ptr, align 8
  %10 = alloca i32, align 4
  %11 = alloca i32, align 4
  %12 = alloca ptr, align 8
  %13 = alloca ptr, align 8
  %14 = alloca i32, align 4
  %15 = alloca i16, align 2
  store ptr %0, ptr %6, align 8
  store ptr %1, ptr %7, align 8
  store ptr %2, ptr %8, align 8
  store ptr %3, ptr %9, align 8
  store i32 %4, ptr %10, align 4
  store i32 0, ptr %11, align 4
  %16 = load ptr, ptr %6, align 8
  %17 = load ptr, ptr %16, align 8
  store ptr %17, ptr %12, align 8
  %18 = load ptr, ptr %8, align 8
  %19 = load ptr, ptr %18, align 8
  store ptr %19, ptr %13, align 8
  br label %20

20:                                               ; preds = %198, %5
  %21 = load ptr, ptr %12, align 8
  %22 = load ptr, ptr %7, align 8
  %23 = icmp ult ptr %21, %22
  br i1 %23, label %24, label %199

24:                                               ; preds = %20
  store i32 0, ptr %14, align 4
  %25 = load ptr, ptr %12, align 8
  %26 = load i8, ptr %25, align 1
  %27 = zext i8 %26 to i64
  %28 = getelementptr inbounds [256 x i8], ptr @_ZN4llvmL20trailingBytesForUTF8E, i64 0, i64 %27
  %29 = load i8, ptr %28, align 1
  %30 = sext i8 %29 to i16
  store i16 %30, ptr %15, align 2
  %31 = load i16, ptr %15, align 2
  %32 = zext i16 %31 to i64
  %33 = load ptr, ptr %7, align 8
  %34 = load ptr, ptr %12, align 8
  %35 = ptrtoint ptr %33 to i64
  %36 = ptrtoint ptr %34 to i64
  %37 = sub i64 %35, %36
  %38 = icmp sge i64 %32, %37
  br i1 %38, label %39, label %40

39:                                               ; preds = %24
  store i32 1, ptr %11, align 4
  br label %199

40:                                               ; preds = %24
  %41 = load ptr, ptr %12, align 8
  %42 = load i16, ptr %15, align 2
  %43 = zext i16 %42 to i32
  %44 = add nsw i32 %43, 1
  %45 = call noundef zeroext i8 @_ZN4llvmL11isLegalUTF8EPKhi(ptr noundef %41, i32 noundef %44)
  %46 = icmp ne i8 %45, 0
  br i1 %46, label %48, label %47

47:                                               ; preds = %40
  store i32 3, ptr %11, align 4
  br label %199

48:                                               ; preds = %40
  %49 = load i16, ptr %15, align 2
  %50 = zext i16 %49 to i32
  switch i32 %50, label %103 [
    i32 5, label %51
    i32 4, label %60
    i32 3, label %69
    i32 2, label %78
    i32 1, label %87
    i32 0, label %96
  ]

51:                                               ; preds = %48
  %52 = load ptr, ptr %12, align 8
  %53 = getelementptr inbounds i8, ptr %52, i32 1
  store ptr %53, ptr %12, align 8
  %54 = load i8, ptr %52, align 1
  %55 = zext i8 %54 to i32
  %56 = load i32, ptr %14, align 4
  %57 = add i32 %56, %55
  store i32 %57, ptr %14, align 4
  %58 = load i32, ptr %14, align 4
  %59 = shl i32 %58, 6
  store i32 %59, ptr %14, align 4
  br label %60

60:                                               ; preds = %51, %48
  %61 = load ptr, ptr %12, align 8
  %62 = getelementptr inbounds i8, ptr %61, i32 1
  store ptr %62, ptr %12, align 8
  %63 = load i8, ptr %61, align 1
  %64 = zext i8 %63 to i32
  %65 = load i32, ptr %14, align 4
  %66 = add i32 %65, %64
  store i32 %66, ptr %14, align 4
  %67 = load i32, ptr %14, align 4
  %68 = shl i32 %67, 6
  store i32 %68, ptr %14, align 4
  br label %69

69:                                               ; preds = %60, %48
  %70 = load ptr, ptr %12, align 8
  %71 = getelementptr inbounds i8, ptr %70, i32 1
  store ptr %71, ptr %12, align 8
  %72 = load i8, ptr %70, align 1
  %73 = zext i8 %72 to i32
  %74 = load i32, ptr %14, align 4
  %75 = add i32 %74, %73
  store i32 %75, ptr %14, align 4
  %76 = load i32, ptr %14, align 4
  %77 = shl i32 %76, 6
  store i32 %77, ptr %14, align 4
  br label %78

78:                                               ; preds = %69, %48
  %79 = load ptr, ptr %12, align 8
  %80 = getelementptr inbounds i8, ptr %79, i32 1
  store ptr %80, ptr %12, align 8
  %81 = load i8, ptr %79, align 1
  %82 = zext i8 %81 to i32
  %83 = load i32, ptr %14, align 4
  %84 = add i32 %83, %82
  store i32 %84, ptr %14, align 4
  %85 = load i32, ptr %14, align 4
  %86 = shl i32 %85, 6
  store i32 %86, ptr %14, align 4
  br label %87

87:                                               ; preds = %78, %48
  %88 = load ptr, ptr %12, align 8
  %89 = getelementptr inbounds i8, ptr %88, i32 1
  store ptr %89, ptr %12, align 8
  %90 = load i8, ptr %88, align 1
  %91 = zext i8 %90 to i32
  %92 = load i32, ptr %14, align 4
  %93 = add i32 %92, %91
  store i32 %93, ptr %14, align 4
  %94 = load i32, ptr %14, align 4
  %95 = shl i32 %94, 6
  store i32 %95, ptr %14, align 4
  br label %96

96:                                               ; preds = %87, %48
  %97 = load ptr, ptr %12, align 8
  %98 = getelementptr inbounds i8, ptr %97, i32 1
  store ptr %98, ptr %12, align 8
  %99 = load i8, ptr %97, align 1
  %100 = zext i8 %99 to i32
  %101 = load i32, ptr %14, align 4
  %102 = add i32 %101, %100
  store i32 %102, ptr %14, align 4
  br label %103

103:                                              ; preds = %96, %48
  %104 = load i16, ptr %15, align 2
  %105 = zext i16 %104 to i64
  %106 = getelementptr inbounds [6 x i32], ptr @_ZN4llvmL15offsetsFromUTF8E, i64 0, i64 %105
  %107 = load i32, ptr %106, align 4
  %108 = load i32, ptr %14, align 4
  %109 = sub i32 %108, %107
  store i32 %109, ptr %14, align 4
  %110 = load ptr, ptr %13, align 8
  %111 = load ptr, ptr %9, align 8
  %112 = icmp uge ptr %110, %111
  br i1 %112, label %113, label %121

113:                                              ; preds = %103
  %114 = load i16, ptr %15, align 2
  %115 = zext i16 %114 to i32
  %116 = add nsw i32 %115, 1
  %117 = load ptr, ptr %12, align 8
  %118 = sext i32 %116 to i64
  %119 = sub i64 0, %118
  %120 = getelementptr inbounds i8, ptr %117, i64 %119
  store ptr %120, ptr %12, align 8
  store i32 2, ptr %11, align 4
  br label %199

121:                                              ; preds = %103
  %122 = load i32, ptr %14, align 4
  %123 = icmp ule i32 %122, 65535
  br i1 %123, label %124, label %151

124:                                              ; preds = %121
  %125 = load i32, ptr %14, align 4
  %126 = icmp uge i32 %125, 55296
  br i1 %126, label %127, label %145

127:                                              ; preds = %124
  %128 = load i32, ptr %14, align 4
  %129 = icmp ule i32 %128, 57343
  br i1 %129, label %130, label %145

130:                                              ; preds = %127
  %131 = load i32, ptr %10, align 4
  %132 = icmp eq i32 %131, 0
  br i1 %132, label %133, label %141

133:                                              ; preds = %130
  %134 = load i16, ptr %15, align 2
  %135 = zext i16 %134 to i32
  %136 = add nsw i32 %135, 1
  %137 = load ptr, ptr %12, align 8
  %138 = sext i32 %136 to i64
  %139 = sub i64 0, %138
  %140 = getelementptr inbounds i8, ptr %137, i64 %139
  store ptr %140, ptr %12, align 8
  store i32 3, ptr %11, align 4
  br label %199

141:                                              ; preds = %130
  %142 = load ptr, ptr %13, align 8
  %143 = getelementptr inbounds i16, ptr %142, i32 1
  store ptr %143, ptr %13, align 8
  store i16 -3, ptr %142, align 2
  br label %144

144:                                              ; preds = %141
  br label %150

145:                                              ; preds = %127, %124
  %146 = load i32, ptr %14, align 4
  %147 = trunc i32 %146 to i16
  %148 = load ptr, ptr %13, align 8
  %149 = getelementptr inbounds i16, ptr %148, i32 1
  store ptr %149, ptr %13, align 8
  store i16 %147, ptr %148, align 2
  br label %150

150:                                              ; preds = %145, %144
  br label %198

151:                                              ; preds = %121
  %152 = load i32, ptr %14, align 4
  %153 = icmp ugt i32 %152, 1114111
  br i1 %153, label %154, label %169

154:                                              ; preds = %151
  %155 = load i32, ptr %10, align 4
  %156 = icmp eq i32 %155, 0
  br i1 %156, label %157, label %165

157:                                              ; preds = %154
  store i32 3, ptr %11, align 4
  %158 = load i16, ptr %15, align 2
  %159 = zext i16 %158 to i32
  %160 = add nsw i32 %159, 1
  %161 = load ptr, ptr %12, align 8
  %162 = sext i32 %160 to i64
  %163 = sub i64 0, %162
  %164 = getelementptr inbounds i8, ptr %161, i64 %163
  store ptr %164, ptr %12, align 8
  br label %199

165:                                              ; preds = %154
  %166 = load ptr, ptr %13, align 8
  %167 = getelementptr inbounds i16, ptr %166, i32 1
  store ptr %167, ptr %13, align 8
  store i16 -3, ptr %166, align 2
  br label %168

168:                                              ; preds = %165
  br label %197

169:                                              ; preds = %151
  %170 = load ptr, ptr %13, align 8
  %171 = getelementptr inbounds i16, ptr %170, i64 1
  %172 = load ptr, ptr %9, align 8
  %173 = icmp uge ptr %171, %172
  br i1 %173, label %174, label %182

174:                                              ; preds = %169
  %175 = load i16, ptr %15, align 2
  %176 = zext i16 %175 to i32
  %177 = add nsw i32 %176, 1
  %178 = load ptr, ptr %12, align 8
  %179 = sext i32 %177 to i64
  %180 = sub i64 0, %179
  %181 = getelementptr inbounds i8, ptr %178, i64 %180
  store ptr %181, ptr %12, align 8
  store i32 2, ptr %11, align 4
  br label %199

182:                                              ; preds = %169
  %183 = load i32, ptr %14, align 4
  %184 = sub i32 %183, 65536
  store i32 %184, ptr %14, align 4
  %185 = load i32, ptr %14, align 4
  %186 = lshr i32 %185, 10
  %187 = add i32 %186, 55296
  %188 = trunc i32 %187 to i16
  %189 = load ptr, ptr %13, align 8
  %190 = getelementptr inbounds i16, ptr %189, i32 1
  store ptr %190, ptr %13, align 8
  store i16 %188, ptr %189, align 2
  %191 = load i32, ptr %14, align 4
  %192 = and i32 %191, 1023
  %193 = add i32 %192, 56320
  %194 = trunc i32 %193 to i16
  %195 = load ptr, ptr %13, align 8
  %196 = getelementptr inbounds i16, ptr %195, i32 1
  store ptr %196, ptr %13, align 8
  store i16 %194, ptr %195, align 2
  br label %197

197:                                              ; preds = %182, %168
  br label %198

198:                                              ; preds = %197, %150
  br label %20, !llvm.loop !10

199:                                              ; preds = %174, %157, %133, %113, %47, %39, %20
  %200 = load ptr, ptr %12, align 8
  %201 = load ptr, ptr %6, align 8
  store ptr %200, ptr %201, align 8
  %202 = load ptr, ptr %13, align 8
  %203 = load ptr, ptr %8, align 8
  store ptr %202, ptr %203, align 8
  %204 = load i32, ptr %11, align 4
  ret i32 %204
}