; Function Attrs: mustprogress nofree norecurse nosync nounwind memory(readwrite, inaccessiblemem: none) uwtable
define dso_local noundef range(i32 0, 4) i32 @_ZN4llvm18ConvertUTF8toUTF16EPPKhS1_PPtS3_NS_15ConversionFlagsE(ptr nocapture noundef %0, ptr noundef %1, ptr nocapture noundef %2, ptr noundef readnone %3, i32 noundef %4) local_unnamed_addr #0 {
  %6 = load ptr, ptr %0, align 8
  %7 = load ptr, ptr %2, align 8
  %8 = icmp ult ptr %6, %1
  br i1 %8, label %.lr.ph, label %.loopexit

.lr.ph:                                           ; preds = %5
  %9 = ptrtoint ptr %1 to i64
  %10 = icmp eq i32 %4, 0
  br label %11

11:                                               ; preds = %.lr.ph, %104
  %.06396 = phi ptr [ %7, %.lr.ph ], [ %.164, %104 ]
  %.06595 = phi ptr [ %6, %.lr.ph ], [ %.267, %104 ]
  %12 = load i8, ptr %.06595, align 1
  %13 = zext i8 %12 to i64
  %14 = getelementptr inbounds [256 x i8], ptr @_ZN4llvmL20trailingBytesForUTF8E, i64 0, i64 %13
  %15 = load i8, ptr %14, align 1
  %16 = sext i8 %15 to i16
  %17 = zext i16 %16 to i64
  %18 = ptrtoint ptr %.06595 to i64
  %19 = sub i64 %9, %18
  %.not = icmp sgt i64 %19, %17
  br i1 %.not, label %20, label %.loopexit

20:                                               ; preds = %11
  %21 = zext i16 %16 to i32
  %22 = add nuw nsw i32 %21, 1
  %23 = tail call fastcc noundef zeroext i8 @_ZN4llvmL11isLegalUTF8EPKhi(ptr noundef nonnull %.06595, i32 noundef %22)
  %.not77 = icmp eq i8 %23, 0
  br i1 %.not77, label %.loopexit, label %24

24:                                               ; preds = %20
  switch i8 %15, label %58 [
    i8 5, label %25
    i8 4, label %29
    i8 3, label %35
    i8 2, label %41
    i8 1, label %47
    i8 0, label %53
  ]

25:                                               ; preds = %24
  %26 = getelementptr inbounds i8, ptr %.06595, i64 1
  %27 = zext i8 %12 to i32
  %28 = shl nuw nsw i32 %27, 6
  %.pre = load i8, ptr %26, align 1
  br label %29

29:                                               ; preds = %25, %24
  %30 = phi i8 [ %12, %24 ], [ %.pre, %25 ]
  %.368 = phi ptr [ %.06595, %24 ], [ %26, %25 ]
  %.1 = phi i32 [ 0, %24 ], [ %28, %25 ]
  %31 = getelementptr inbounds i8, ptr %.368, i64 1
  %32 = zext i8 %30 to i32
  %33 = add nuw nsw i32 %.1, %32
  %34 = shl nuw nsw i32 %33, 6
  %.pre117 = load i8, ptr %31, align 1
  br label %35

35:                                               ; preds = %29, %24
  %36 = phi i8 [ %12, %24 ], [ %.pre117, %29 ]
  %.469 = phi ptr [ %.06595, %24 ], [ %31, %29 ]
  %.2 = phi i32 [ 0, %24 ], [ %34, %29 ]
  %37 = getelementptr inbounds i8, ptr %.469, i64 1
  %38 = zext i8 %36 to i32
  %39 = add nuw nsw i32 %.2, %38
  %40 = shl nuw nsw i32 %39, 6
  %.pre118 = load i8, ptr %37, align 1
  br label %41

41:                                               ; preds = %35, %24
  %42 = phi i8 [ %12, %24 ], [ %.pre118, %35 ]
  %.570 = phi ptr [ %.06595, %24 ], [ %37, %35 ]
  %.3 = phi i32 [ 0, %24 ], [ %40, %35 ]
  %43 = getelementptr inbounds i8, ptr %.570, i64 1
  %44 = zext i8 %42 to i32
  %45 = add nuw nsw i32 %.3, %44
  %46 = shl i32 %45, 6
  %.pre119 = load i8, ptr %43, align 1
  br label %47

47:                                               ; preds = %41, %24
  %48 = phi i8 [ %12, %24 ], [ %.pre119, %41 ]
  %.6 = phi ptr [ %.06595, %24 ], [ %43, %41 ]
  %.4 = phi i32 [ 0, %24 ], [ %46, %41 ]
  %49 = getelementptr inbounds i8, ptr %.6, i64 1
  %50 = zext i8 %48 to i32
  %51 = add i32 %.4, %50
  %52 = shl i32 %51, 6
  %.pre120 = load i8, ptr %49, align 1
  br label %53

53:                                               ; preds = %47, %24
  %54 = phi i8 [ %12, %24 ], [ %.pre120, %47 ]
  %.7 = phi ptr [ %.06595, %24 ], [ %49, %47 ]
  %.5 = phi i32 [ 0, %24 ], [ %52, %47 ]
  %55 = getelementptr inbounds i8, ptr %.7, i64 1
  %56 = zext i8 %54 to i32
  %57 = add i32 %.5, %56
  br label %58

58:                                               ; preds = %53, %24
  %.267 = phi ptr [ %.06595, %24 ], [ %55, %53 ]
  %.062 = phi i32 [ 0, %24 ], [ %57, %53 ]
  %59 = getelementptr inbounds [6 x i32], ptr @_ZN4llvmL15offsetsFromUTF8E, i64 0, i64 %17
  %60 = load i32, ptr %59, align 4
  %61 = sub i32 %.062, %60
  %.not78 = icmp ult ptr %.06396, %3
  br i1 %.not78, label %66, label %62

62:                                               ; preds = %58
  %63 = zext nneg i32 %22 to i64
  %64 = sub nsw i64 0, %63
  %65 = getelementptr inbounds i8, ptr %.267, i64 %64
  br label %.loopexit

66:                                               ; preds = %58
  %67 = icmp ult i32 %61, 65536
  br i1 %67, label %68, label %80

68:                                               ; preds = %66
  %69 = and i32 %61, 63488
  %or.cond = icmp eq i32 %69, 55296
  br i1 %or.cond, label %70, label %77

70:                                               ; preds = %68
  br i1 %10, label %71, label %75

71:                                               ; preds = %70
  %72 = zext nneg i32 %22 to i64
  %73 = sub nsw i64 0, %72
  %74 = getelementptr inbounds i8, ptr %.267, i64 %73
  br label %.loopexit

75:                                               ; preds = %70
  %76 = getelementptr inbounds i8, ptr %.06396, i64 2
  store i16 -3, ptr %.06396, align 2
  br label %104

77:                                               ; preds = %68
  %78 = trunc nuw i32 %61 to i16
  %79 = getelementptr inbounds i8, ptr %.06396, i64 2
  store i16 %78, ptr %.06396, align 2
  br label %104

80:                                               ; preds = %66
  %81 = icmp ugt i32 %61, 1114111
  br i1 %81, label %82, label %89

82:                                               ; preds = %80
  br i1 %10, label %83, label %87

83:                                               ; preds = %82
  %84 = zext nneg i32 %22 to i64
  %85 = sub nsw i64 0, %84
  %86 = getelementptr inbounds i8, ptr %.267, i64 %85
  br label %.loopexit

87:                                               ; preds = %82
  %88 = getelementptr inbounds i8, ptr %.06396, i64 2
  store i16 -3, ptr %.06396, align 2
  br label %104

89:                                               ; preds = %80
  %90 = getelementptr inbounds i8, ptr %.06396, i64 2
  %.not79 = icmp ult ptr %90, %3
  br i1 %.not79, label %95, label %91

91:                                               ; preds = %89
  %92 = zext nneg i32 %22 to i64
  %93 = sub nsw i64 0, %92
  %94 = getelementptr inbounds i8, ptr %.267, i64 %93
  br label %.loopexit

95:                                               ; preds = %89
  %96 = add nuw nsw i32 %61, 67043328
  %97 = lshr i32 %96, 10
  %98 = trunc i32 %97 to i16
  %99 = add nuw nsw i16 %98, -10240
  store i16 %99, ptr %.06396, align 2
  %100 = trunc i32 %61 to i16
  %101 = and i16 %100, 1023
  %102 = or disjoint i16 %101, -9216
  %103 = getelementptr inbounds i8, ptr %.06396, i64 4
  store i16 %102, ptr %90, align 2
  br label %104

104:                                              ; preds = %87, %95, %75, %77
  %.164 = phi ptr [ %76, %75 ], [ %79, %77 ], [ %88, %87 ], [ %103, %95 ]
  %105 = icmp ult ptr %.267, %1
  br i1 %105, label %11, label %.loopexit, !llvm.loop !10

.loopexit:                                        ; preds = %104, %11, %20, %5, %91, %83, %71, %62
  %.06384 = phi ptr [ %.06396, %62 ], [ %.06396, %71 ], [ %.06396, %83 ], [ %.06396, %91 ], [ %7, %5 ], [ %.164, %104 ], [ %.06396, %11 ], [ %.06396, %20 ]
  %.166 = phi ptr [ %65, %62 ], [ %74, %71 ], [ %86, %83 ], [ %94, %91 ], [ %6, %5 ], [ %.267, %104 ], [ %.06595, %11 ], [ %.06595, %20 ]
  %.0 = phi i32 [ 2, %62 ], [ 3, %71 ], [ 3, %83 ], [ 2, %91 ], [ 0, %5 ], [ 0, %104 ], [ 1, %11 ], [ 3, %20 ]
  store ptr %.166, ptr %0, align 8
  store ptr %.06384, ptr %2, align 8
  ret i32 %.0
}